; ModuleID = '56/454.c'
source_filename = "56/454.c"
target datalayout = "e-m:e-p270:32:32-p271:32:32-p272:64:64-i64:64-f80:128-n8:16:32:64-S128"
target triple = "x86_64-pc-linux-gnu"

@.str = private unnamed_addr constant [3 x i8] c"%d\00", align 1
@.str.1 = private unnamed_addr constant [4 x i8] c"%d\0A\00", align 1

; Function Attrs: noinline nounwind uwtable
define dso_local i32 @main() #0 {
  %1 = alloca i32, align 4
  %2 = alloca i32, align 4
  %3 = alloca i32, align 4
  %4 = alloca i32, align 4
  %5 = alloca i32, align 4
  %6 = alloca i32, align 4
  %7 = alloca i32, align 4
  %8 = alloca i32, align 4
  store i32 0, i32* %1, align 4
  store i32 0, i32* %3, align 4
  %9 = call i32 (i8*, ...) @__isoc99_scanf(i8* getelementptr inbounds ([3 x i8], [3 x i8]* @.str, i64 0, i64 0), i32* %2)
  %10 = load i32, i32* %2, align 4
  %11 = sdiv i32 %10, 10000
  store i32 %11, i32* %4, align 4
  %12 = load i32, i32* %2, align 4
  %13 = load i32, i32* %4, align 4
  %14 = mul nsw i32 %13, 10000
  %15 = sub nsw i32 %12, %14
  %16 = sdiv i32 %15, 1000
  store i32 %16, i32* %5, align 4
  %17 = load i32, i32* %2, align 4
  %18 = load i32, i32* %4, align 4
  %19 = mul nsw i32 %18, 10000
  %20 = sub nsw i32 %17, %19
  %21 = load i32, i32* %5, align 4
  %22 = mul nsw i32 %21, 1000
  %23 = sub nsw i32 %20, %22
  %24 = sdiv i32 %23, 100
  store i32 %24, i32* %6, align 4
  %25 = load i32, i32* %2, align 4
  %26 = load i32, i32* %4, align 4
  %27 = mul nsw i32 %26, 10000
  %28 = sub nsw i32 %25, %27
  %29 = load i32, i32* %5, align 4
  %30 = mul nsw i32 %29, 1000
  %31 = sub nsw i32 %28, %30
  %32 = load i32, i32* %6, align 4
  %33 = mul nsw i32 %32, 100
  %34 = sub nsw i32 %31, %33
  %35 = sdiv i32 %34, 10
  store i32 %35, i32* %7, align 4
  %36 = load i32, i32* %2, align 4
  %37 = load i32, i32* %4, align 4
  %38 = mul nsw i32 %37, 10000
  %39 = sub nsw i32 %36, %38
  %40 = load i32, i32* %5, align 4
  %41 = mul nsw i32 %40, 1000
  %42 = sub nsw i32 %39, %41
  %43 = load i32, i32* %6, align 4
  %44 = mul nsw i32 %43, 100
  %45 = sub nsw i32 %42, %44
  %46 = load i32, i32* %7, align 4
  %47 = mul nsw i32 %46, 10
  %48 = sub nsw i32 %45, %47
  %49 = sdiv i32 %48, 1
  store i32 %49, i32* %8, align 4
  %50 = load i32, i32* %2, align 4
  %51 = icmp sgt i32 %50, 9999
  br i1 %51, label %52, label %66

52:                                               ; preds = %0
  %53 = load i32, i32* %4, align 4
  %54 = load i32, i32* %5, align 4
  %55 = mul nsw i32 %54, 10
  %56 = add nsw i32 %53, %55
  %57 = load i32, i32* %6, align 4
  %58 = mul nsw i32 %57, 100
  %59 = add nsw i32 %56, %58
  %60 = load i32, i32* %7, align 4
  %61 = mul nsw i32 %60, 1000
  %62 = add nsw i32 %59, %61
  %63 = load i32, i32* %8, align 4
  %64 = mul nsw i32 %63, 10000
  %65 = add nsw i32 %62, %64
  store i32 %65, i32* %3, align 4
  br label %101

66:                                               ; preds = %0
  %67 = load i32, i32* %2, align 4
  %68 = icmp slt i32 %67, 10000
  br i1 %68, label %69, label %84

69:                                               ; preds = %66
  %70 = load i32, i32* %2, align 4
  %71 = icmp sgt i32 %70, 999
  br i1 %71, label %72, label %84

72:                                               ; preds = %69
  %73 = load i32, i32* %5, align 4
  %74 = mul nsw i32 %73, 1
  %75 = load i32, i32* %6, align 4
  %76 = mul nsw i32 %75, 10
  %77 = add nsw i32 %74, %76
  %78 = load i32, i32* %7, align 4
  %79 = mul nsw i32 %78, 100
  %80 = add nsw i32 %77, %79
  %81 = load i32, i32* %8, align 4
  %82 = mul nsw i32 %81, 1000
  %83 = add nsw i32 %80, %82
  store i32 %83, i32* %3, align 4
  br label %100

84:                                               ; preds = %69, %66
  %85 = load i32, i32* %2, align 4
  %86 = icmp slt i32 %85, 1000
  br i1 %86, label %87, label %99

87:                                               ; preds = %84
  %88 = load i32, i32* %2, align 4
  %89 = icmp sgt i32 %88, 99
  br i1 %89, label %90, label %99

90:                                               ; preds = %87
  %91 = load i32, i32* %6, align 4
  %92 = mul nsw i32 %91, 1
  %93 = load i32, i32* %7, align 4
  %94 = mul nsw i32 %93, 10
  %95 = add nsw i32 %92, %94
  %96 = load i32, i32* %8, align 4
  %97 = mul nsw i32 %96, 100
  %98 = add nsw i32 %95, %97
  store i32 %98, i32* %3, align 4
  br label %99

99:                                               ; preds = %90, %87, %84
  br label %100

100:                                              ; preds = %99, %72
  br label %101

101:                                              ; preds = %100, %52
  %102 = load i32, i32* %3, align 4
  %103 = call i32 (i8*, ...) @printf(i8* getelementptr inbounds ([4 x i8], [4 x i8]* @.str.1, i64 0, i64 0), i32 %102)
  ret i32 0
}

declare dso_local i32 @__isoc99_scanf(i8*, ...) #1

declare dso_local i32 @printf(i8*, ...) #1


!llvm.module.flags = !{!0}
!llvm.ident = !{!1}

!0 = !{i32 1, !"wchar_size", i32 4}
!1 = !{!"clang version 10.0.0-4ubuntu1 "}
